// Auto-generated link stubs for rb3-xenon native DTA tool.
// Symbols referenced by compiled-but-unused engine vtables
// (rendering/MIDI/synth/Win32). NONE are on the DTA-parse path.
// Functions return 0; data symbols are zeroed storage.

.text
.weak DmCaptureStackBackTrace
.type DmCaptureStackBackTrace,@function
DmCaptureStackBackTrace:
    xorq %rax, %rax
    ret

.weak DmGetSystemInfo
.type DmGetSystemInfo,@function
DmGetSystemInfo:
    xorq %rax, %rax
    ret

.weak DmIsDebuggerPresent
.type DmIsDebuggerPresent,@function
DmIsDebuggerPresent:
    xorq %rax, %rax
    ret

.weak DmMapDevkitDrive
.type DmMapDevkitDrive,@function
DmMapDevkitDrive:
    xorq %rax, %rax
    ret

.weak FileTimeToSystemTime
.type FileTimeToSystemTime,@function
FileTimeToSystemTime:
    xorq %rax, %rax
    ret

.weak GetLastError
.type GetLastError,@function
GetLastError:
    xorq %rax, %rax
    ret

.weak GetOverlappedResult
.type GetOverlappedResult,@function
GetOverlappedResult:
    xorq %rax, %rax
    ret

.weak GetTimeZoneInformation
.type GetTimeZoneInformation,@function
GetTimeZoneInformation:
    xorq %rax, %rax
    ret

.weak JoypadSetActuatorsImp
.type JoypadSetActuatorsImp,@function
JoypadSetActuatorsImp:
    xorq %rax, %rax
    ret

.weak OutputDebugStringA
.type OutputDebugStringA,@function
OutputDebugStringA:
    xorq %rax, %rax
    ret

.weak XInputGetCapabilities
.type XInputGetCapabilities,@function
XInputGetCapabilities:
    xorq %rax, %rax
    ret

.weak XNetRandom
.type XNetRandom,@function
XNetRandom:
    xorq %rax, %rax
    ret

.weak _Z11CloseHandlei
.type _Z11CloseHandlei,@function
_Z11CloseHandlei:
    xorq %rax, %rax
    ret

.weak _Z12SetupHXDrumsiRK20_XINPUT_CAPABILITIES
.type _Z12SetupHXDrumsiRK20_XINPUT_CAPABILITIES,@function
_Z12SetupHXDrumsiRK20_XINPUT_CAPABILITIES:
    xorq %rax, %rax
    ret

.weak _Z13NativeArkReadixPvi
.type _Z13NativeArkReadixPvi,@function
_Z13NativeArkReadixPvi:
    xorq %rax, %rax
    ret

.weak _Z13SetupHXGuitariRK20_XINPUT_CAPABILITIES
.type _Z13SetupHXGuitariRK20_XINPUT_CAPABILITIES,@function
_Z13SetupHXGuitariRK20_XINPUT_CAPABILITIES:
    xorq %rax, %rax
    ret

.weak _Z13SetupHXKeytariRK20_XINPUT_CAPABILITIES
.type _Z13SetupHXKeytariRK20_XINPUT_CAPABILITIES,@function
_Z13SetupHXKeytariRK20_XINPUT_CAPABILITIES:
    xorq %rax, %rax
    ret

.weak _Z13XNetDnsLookupiiPv
.type _Z13XNetDnsLookupiiPv,@function
_Z13XNetDnsLookupiiPv:
    xorq %rax, %rax
    ret

.weak _Z14WSACreateEventv
.type _Z14WSACreateEventv,@function
_Z14WSACreateEventv:
    xorq %rax, %rax
    ret

.weak _Z14XNetDnsReleasePv
.type _Z14XNetDnsReleasePv,@function
_Z14XNetDnsReleasePv:
    xorq %rax, %rax
    ret

.weak _Z16ValidateThreadIdm
.type _Z16ValidateThreadIdm,@function
_Z16ValidateThreadIdm:
    xorq %rax, %rax
    ret

.weak _Z17SetupHXRealGuitariRK20_XINPUT_CAPABILITIES
.type _Z17SetupHXRealGuitariRK20_XINPUT_CAPABILITIES,@function
_Z17SetupHXRealGuitariRK20_XINPUT_CAPABILITIES:
    xorq %rax, %rax
    ret

.weak _Z19WaitForSingleObjectii
.type _Z19WaitForSingleObjectii,@function
_Z19WaitForSingleObjectii:
    xorq %rax, %rax
    ret

.weak _Z22RecursePatternInternalPKcPFvS0_S0_Ebb
.type _Z22RecursePatternInternalPKcPFvS0_S0_Ebb,@function
_Z22RecursePatternInternalPKcPFvS0_S0_Ebb:
    xorq %rax, %rax
    ret

.weak _Z23GetXinputSinceLastFrameiP13_XINPUT_STATEPj
.type _Z23GetXinputSinceLastFrameiP13_XINPUT_STATEPj,@function
_Z23GetXinputSinceLastFrameiP13_XINPUT_STATEPj:
    xorq %rax, %rax
    ret

.weak _Z3Modff
.type _Z3Modff,@function
_Z3Modff:
    xorq %rax, %rax
    ret

.weak _ZN10MidiParser4PollEv
.type _ZN10MidiParser4PollEv,@function
_ZN10MidiParser4PollEv:
    xorq %rax, %rax
    ret

.weak _ZN10RndOverlay4FindE6Symbolb
.type _ZN10RndOverlay4FindE6Symbolb,@function
_ZN10RndOverlay4FindE6Symbolb:
    xorq %rax, %rax
    ret

.weak _ZN11XboxMapFile10ParseStackEPKcP9StackDataiR11FixedString
.type _ZN11XboxMapFile10ParseStackEPKcP9StackDataiR11FixedString,@function
_ZN11XboxMapFile10ParseStackEPKcP9StackDataiR11FixedString:
    xorq %rax, %rax
    ret

.weak _ZN12CacheMgrXboxC1Ev
.type _ZN12CacheMgrXboxC1Ev,@function
_ZN12CacheMgrXboxC1Ev:
    xorq %rax, %rax
    ret

.weak _ZN12MidiReceiverC2Ev
.type _ZN12MidiReceiverC2Ev,@function
_ZN12MidiReceiverC2Ev:
    xorq %rax, %rax
    ret

.weak _ZN13CameraManager4PollEv
.type _ZN13CameraManager4PollEv,@function
_ZN13CameraManager4PollEv:
    xorq %rax, %rax
    ret

.weak _ZN13NetLoaderXboxC1ERK6String
.type _ZN13NetLoaderXboxC1ERK6String,@function
_ZN13NetLoaderXboxC1ERK6String:
    xorq %rax, %rax
    ret

.weak _ZN13RndAnimatable12SyncPropertyER8DataNodeP9DataArrayi6PropOp
.type _ZN13RndAnimatable12SyncPropertyER8DataNodeP9DataArrayi6PropOp,@function
_ZN13RndAnimatable12SyncPropertyER8DataNodeP9DataArrayi6PropOp:
    xorq %rax, %rax
    ret

.weak _ZN13RndAnimatable4CopyEPKN3Hmx6ObjectENS1_8CopyTypeE
.type _ZN13RndAnimatable4CopyEPKN3Hmx6ObjectENS1_8CopyTypeE,@function
_ZN13RndAnimatable4CopyEPKN3Hmx6ObjectENS1_8CopyTypeE:
    xorq %rax, %rax
    ret

.weak _ZN13RndAnimatable4LoadER9BinStream
.type _ZN13RndAnimatable4LoadER9BinStream,@function
_ZN13RndAnimatable4LoadER9BinStream:
    xorq %rax, %rax
    ret

.weak _ZN13RndAnimatable4SaveER9BinStream
.type _ZN13RndAnimatable4SaveER9BinStream,@function
_ZN13RndAnimatable4SaveER9BinStream:
    xorq %rax, %rax
    ret

.weak _ZN13RndAnimatable6HandleEP9DataArrayb
.type _ZN13RndAnimatable6HandleEP9DataArrayb,@function
_ZN13RndAnimatable6HandleEP9DataArrayb:
    xorq %rax, %rax
    ret

.weak _ZN13RndAnimatable8SetFrameEff
.type _ZN13RndAnimatable8SetFrameEff,@function
_ZN13RndAnimatable8SetFrameEff:
    xorq %rax, %rax
    ret

.weak _ZN13RndAnimatableC2Ev
.type _ZN13RndAnimatableC2Ev,@function
_ZN13RndAnimatableC2Ev:
    xorq %rax, %rax
    ret

.weak _ZN15NetCacheMgrXboxC1Ev
.type _ZN15NetCacheMgrXboxC1Ev,@function
_ZN15NetCacheMgrXboxC1Ev:
    xorq %rax, %rax
    ret

.weak _ZN18LightPresetManager4PollEv
.type _ZN18LightPresetManager4PollEv,@function
_ZN18LightPresetManager4PollEv:
    xorq %rax, %rax
    ret

.weak _ZN18LightPresetManager5EnterEv
.type _ZN18LightPresetManager5EnterEv,@function
_ZN18LightPresetManager5EnterEv:
    xorq %rax, %rax
    ret

.weak _ZN3Rnd14DrawRectScreenERKN3Hmx4RectERKNS0_5ColorEP6RndMatPS5_S9_
.type _ZN3Rnd14DrawRectScreenERKN3Hmx4RectERKNS0_5ColorEP6RndMatPS5_S9_,@function
_ZN3Rnd14DrawRectScreenERKN3Hmx4RectERKNS0_5ColorEP6RndMatPS5_S9_:
    xorq %rax, %rax
    ret

.weak _ZN3Rnd16DrawStringScreenEPKcRK7Vector2RKN3Hmx5ColorEb
.type _ZN3Rnd16DrawStringScreenEPKcRK7Vector2RKN3Hmx5ColorEb,@function
_ZN3Rnd16DrawStringScreenEPKcRK7Vector2RKN3Hmx5ColorEb:
    xorq %rax, %rax
    ret

.weak _ZN5Synth10StopAllSfxEb
.type _ZN5Synth10StopAllSfxEb,@function
_ZN5Synth10StopAllSfxEb:
    xorq %rax, %rax
    ret

.weak _ZN5Synth15GetMasterVolumeEv
.type _ZN5Synth15GetMasterVolumeEv,@function
_ZN5Synth15GetMasterVolumeEv:
    xorq %rax, %rax
    ret

.weak _ZN5Synth15SetMasterVolumeEf
.type _ZN5Synth15SetMasterVolumeEf,@function
_ZN5Synth15SetMasterVolumeEf:
    xorq %rax, %rax
    ret

.weak _ZN8RndGraph11GetOneFrameEv
.type _ZN8RndGraph11GetOneFrameEv,@function
_ZN8RndGraph11GetOneFrameEv:
    xorq %rax, %rax
    ret

.weak _ZN8RndGraph13AddScreenLineERK7Vector2S2_RKN3Hmx5ColorEb
.type _ZN8RndGraph13AddScreenLineERK7Vector2S2_RKN3Hmx5ColorEb,@function
_ZN8RndGraph13AddScreenLineERK7Vector2S2_RKN3Hmx5ColorEb:
    xorq %rax, %rax
    ret

.weak _ZN8RndGraph15AddRectFilled2DERKN3Hmx4RectERKNS0_5ColorE
.type _ZN8RndGraph15AddRectFilled2DERKN3Hmx4RectERKNS0_5ColorE,@function
_ZN8RndGraph15AddRectFilled2DERKN3Hmx4RectERKNS0_5ColorE:
    xorq %rax, %rax
    ret

.weak _ZN8RndGraph15AddScreenStringEPKcRK7Vector2RKN3Hmx5ColorE
.type _ZN8RndGraph15AddScreenStringEPKcRK7Vector2RKN3Hmx5ColorE,@function
_ZN8RndGraph15AddScreenStringEPKcRK7Vector2RKN3Hmx5ColorE:
    xorq %rax, %rax
    ret

.weak _ZNK11HamGameData5VenueEv
.type _ZNK11HamGameData5VenueEv,@function
_ZNK11HamGameData5VenueEv:
    xorq %rax, %rax
    ret

.weak _ZNK11HamGameData6PlayerEi
.type _ZNK11HamGameData6PlayerEi,@function
_ZNK11HamGameData6PlayerEi:
    xorq %rax, %rax
    ret

.weak _ZNK12SongInfoCopy9GetTracksEv
.type _ZNK12SongInfoCopy9GetTracksEv,@function
_ZNK12SongInfoCopy9GetTracksEv:
    xorq %rax, %rax
    ret

.weak _ZTv0_n104_N13RndAnimatable4LoadER9BinStream
.type _ZTv0_n104_N13RndAnimatable4LoadER9BinStream,@function
_ZTv0_n104_N13RndAnimatable4LoadER9BinStream:
    xorq %rax, %rax
    ret

.weak _ZTv0_n64_N13RndAnimatable6HandleEP9DataArrayb
.type _ZTv0_n64_N13RndAnimatable6HandleEP9DataArrayb,@function
_ZTv0_n64_N13RndAnimatable6HandleEP9DataArrayb:
    xorq %rax, %rax
    ret

.weak _ZTv0_n72_N13RndAnimatable12SyncPropertyER8DataNodeP9DataArrayi6PropOp
.type _ZTv0_n72_N13RndAnimatable12SyncPropertyER8DataNodeP9DataArrayi6PropOp,@function
_ZTv0_n72_N13RndAnimatable12SyncPropertyER8DataNodeP9DataArrayi6PropOp:
    xorq %rax, %rax
    ret

.weak _ZTv0_n88_N13RndAnimatable4SaveER9BinStream
.type _ZTv0_n88_N13RndAnimatable4SaveER9BinStream,@function
_ZTv0_n88_N13RndAnimatable4SaveER9BinStream:
    xorq %rax, %rax
    ret

.weak _ZTv0_n96_N13RndAnimatable4CopyEPKN3Hmx6ObjectENS1_8CopyTypeE
.type _ZTv0_n96_N13RndAnimatable4CopyEPKN3Hmx6ObjectENS1_8CopyTypeE,@function
_ZTv0_n96_N13RndAnimatable4CopyEPKN3Hmx6ObjectENS1_8CopyTypeE:
    xorq %rax, %rax
    ret

.bss
.align 16
.weak gMemStackLock
.type gMemStackLock,@object
.size gMemStackLock, 128
gMemStackLock:
    .zero 128

.weak TheContentMgr
.type TheContentMgr,@object
.size TheContentMgr, 128
TheContentMgr:
    .zero 128

.weak TheDebugNotifyOncePrinter
.type TheDebugNotifyOncePrinter,@object
.size TheDebugNotifyOncePrinter, 128
TheDebugNotifyOncePrinter:
    .zero 128

.weak TheGameData
.type TheGameData,@object
.size TheGameData, 128
TheGameData:
    .zero 128

.weak TheMidiParserMgr
.type TheMidiParserMgr,@object
.size TheMidiParserMgr, 128
TheMidiParserMgr:
    .zero 128

.weak TheRnd
.type TheRnd,@object
.size TheRnd, 128
TheRnd:
    .zero 128

.weak TheSynth
.type TheSynth,@object
.size TheSynth, 128
TheSynth:
    .zero 128

.weak TheWebSvcMgr
.type TheWebSvcMgr,@object
.size TheWebSvcMgr, 128
TheWebSvcMgr:
    .zero 128

.weak _ZN10MidiParser8sParsersB5cxx11E
.type _ZN10MidiParser8sParsersB5cxx11E,@object
.size _ZN10MidiParser8sParsersB5cxx11E, 128
_ZN10MidiParser8sParsersB5cxx11E:
    .zero 128

.weak _ZN12MemHeapStack12sDefaultHeapE
.type _ZN12MemHeapStack12sDefaultHeapE,@object
.size _ZN12MemHeapStack12sDefaultHeapE, 128
_ZN12MemHeapStack12sDefaultHeapE:
    .zero 128

.weak _ZTI11RndPollable
.type _ZTI11RndPollable,@object
.size _ZTI11RndPollable, 128
_ZTI11RndPollable:
    .zero 128

.weak _ZTI13RndAnimatable
.type _ZTI13RndAnimatable,@object
.size _ZTI13RndAnimatable, 128
_ZTI13RndAnimatable:
    .zero 128

.weak _ZTI8WorldDir
.type _ZTI8WorldDir,@object
.size _ZTI8WorldDir, 128
_ZTI8WorldDir:
    .zero 128

.weak _ZTT13RndAnimatable
.type _ZTT13RndAnimatable,@object
.size _ZTT13RndAnimatable, 128
_ZTT13RndAnimatable:
    .zero 128

